; Function Attrs: nofree norecurse nosync nounwind memory(argmem: readwrite) uwtable
define internal void @SDL_ConvertStereoTo71(ptr noundef writeonly captures(none) %0, ptr noundef readonly captures(none) %1, i32 noundef %2) #5 {
  %.not20 = icmp eq i32 %2, 0
  br i1 %.not20, label %._crit_edge, label %.lr.ph.preheader

.lr.ph.preheader:                                 ; preds = %3
  %4 = add nsw i32 %2, -1
  %5 = shl nsw i32 %4, 3
  %6 = sext i32 %5 to i64
  %7 = getelementptr inbounds float, ptr %0, i64 %6
  %8 = shl nsw i32 %4, 1
  %9 = sext i32 %8 to i64
  %10 = getelementptr inbounds float, ptr %1, i64 %9
  br label %.lr.ph

.lr.ph:                                           ; preds = %.lr.ph.preheader, %.lr.ph
  %.023 = phi i32 [ %16, %.lr.ph ], [ %2, %.lr.ph.preheader ]
  %.01822 = phi ptr [ %18, %.lr.ph ], [ %7, %.lr.ph.preheader ]
  %.01921 = phi ptr [ %17, %.lr.ph ], [ %10, %.lr.ph.preheader ]
  %11 = getelementptr inbounds nuw i8, ptr %.01822, i64 8
  %12 = getelementptr inbounds nuw i8, ptr %.01921, i64 4
  tail call void @llvm.memset.p0.i64(ptr noundef nonnull align 4 dereferenceable(24) %11, i8 0, i64 24, i1 false)
  %13 = load float, ptr %12, align 4
  %14 = getelementptr inbounds nuw i8, ptr %.01822, i64 4
  store float %13, ptr %14, align 4
  %15 = load float, ptr %.01921, align 4
  store float %15, ptr %.01822, align 4
  %16 = add nsw i32 %.023, -1
  %17 = getelementptr inbounds i8, ptr %.01921, i64 -8
  %18 = getelementptr inbounds i8, ptr %.01822, i64 -32
  %.not = icmp eq i32 %16, 0
  br i1 %.not, label %._crit_edge, label %.lr.ph, !llvm.loop !63

._crit_edge:                                      ; preds = %.lr.ph, %3
  ret void
}